; Function Attrs: mustprogress uwtable
define dso_local i32 @_ZN4absl18RemoveCrc32cSuffixENS_8crc32c_tES0_m(i32 %0, i32 %1, i64 noundef %2) local_unnamed_addr #0 personality ptr @__gxx_personality_v0 {
  %4 = alloca i32, align 4
  call void @llvm.lifetime.start.p0(i64 4, ptr nonnull %4) #4
  %5 = xor i32 %1, %0
  store i32 %5, ptr %4, align 4, !tbaa !4
  %6 = load atomic i8, ptr @_ZGVZN4absl12_GLOBAL__N_19CrcEngineEvE6engine acquire, align 8
  %7 = icmp eq i8 %6, 0
  br i1 %7, label %8, label %_ZN4absl12_GLOBAL__N_19CrcEngineEv.exit, !prof !8

8:                                                ; preds = %3
  %9 = tail call i32 @__cxa_guard_acquire(ptr nonnull @_ZGVZN4absl12_GLOBAL__N_19CrcEngineEvE6engine) #4
  %.not.i = icmp eq i32 %9, 0
  br i1 %.not.i, label %_ZN4absl12_GLOBAL__N_19CrcEngineEv.exit, label %10

10:                                               ; preds = %8
  %11 = invoke noundef ptr @_ZN4absl12crc_internal3CRC6Crc32cEv()
          to label %12 unwind label %13

12:                                               ; preds = %10
  store ptr %11, ptr @_ZZN4absl12_GLOBAL__N_19CrcEngineEvE6engine, align 8, !tbaa !9
  tail call void @__cxa_guard_release(ptr nonnull @_ZGVZN4absl12_GLOBAL__N_19CrcEngineEvE6engine) #4
  br label %_ZN4absl12_GLOBAL__N_19CrcEngineEv.exit

13:                                               ; preds = %10
  %14 = landingpad { ptr, i32 }
          cleanup
  tail call void @__cxa_guard_abort(ptr nonnull @_ZGVZN4absl12_GLOBAL__N_19CrcEngineEvE6engine) #4
  resume { ptr, i32 } %14

_ZN4absl12_GLOBAL__N_19CrcEngineEv.exit:          ; preds = %3, %8, %12
  %15 = load ptr, ptr @_ZZN4absl12_GLOBAL__N_19CrcEngineEvE6engine, align 8, !tbaa !9
  %16 = load ptr, ptr %15, align 8, !tbaa !12
  %17 = getelementptr inbounds nuw i8, ptr %16, i64 32
  %18 = load ptr, ptr %17, align 8
  call void %18(ptr noundef nonnull align 8 dereferenceable(8) %15, ptr noundef nonnull %4, i64 noundef %2)
  %19 = load i32, ptr %4, align 4, !tbaa !4
  call void @llvm.lifetime.end.p0(i64 4, ptr nonnull %4) #4
  ret i32 %19
}